target datalayout = "e-m:e-p270:32:32-p271:32:32-p272:64:64-i64:64-i128:128-f80:128-n8:16:32:64-S128"
target triple = "x86_64-pc-linux-gnu"

%struct.AVFilterContext = type { ptr, ptr, ptr, ptr, ptr, i32, ptr, ptr, i32, ptr, ptr, i32, i32, ptr, ptr, ptr, ptr, i32, ptr, i32, i32 }
%struct.SSIM360Context = type { ptr, %struct.FFFrameSync, ptr, ptr, i32, [4 x double], [4 x i8], i32, i32, i32, [4 x i8], i64, ptr, i64, i64, [4 x double], double, [4 x ptr], [4 x double], [4 x [256 x double]], i32, i32, i32, i32, float, float, i32, ptr, i32, i32, %struct.Map2D, ptr, [4 x i32], [4 x i32], [4 x i32], [4 x i32], [4 x i32], [4 x [2 x ptr]], [4 x [2 x ptr]], [4 x [2 x float]], ptr }
%struct.FFFrameSync = type { ptr, ptr, i32, %struct.AVRational, i64, ptr, ptr, i32, i32, i8, i8, ptr, i32, i32, i32, i32 }
%struct.AVRational = type { i32, i32 }
%struct.Map2D = type { i32, i32, ptr }
%struct.AVFilterLink = type { ptr, ptr, ptr, ptr, i32, i32, i32, i32, %struct.AVRational, i32, i32, i32, %struct.AVChannelLayout, %struct.AVRational, ptr, i32, %struct.AVFilterFormatsConfig, %struct.AVFilterFormatsConfig }
%struct.AVChannelLayout = type { i32, i32, %union.anon.1, ptr }
%union.anon.1 = type { i64 }
%struct.AVFilterFormatsConfig = type { ptr, ptr, ptr, ptr, ptr }
%struct.AVPixFmtDescriptor = type { ptr, i8, i8, i8, i64, [4 x %struct.AVComponentDescriptor], ptr }
%struct.AVComponentDescriptor = type { i32, i32, i32, i32, i32 }

; Function Attrs: nounwind uwtable
define internal i32 @config_input_main(ptr noundef %0) #0 {
  %2 = alloca ptr, align 8
  %3 = alloca ptr, align 8
  %4 = alloca ptr, align 8
  %5 = alloca ptr, align 8
  store ptr %0, ptr %2, align 8, !tbaa !56
  call void @llvm.lifetime.start.p0(i64 8, ptr %3) #14
  %6 = load ptr, ptr %2, align 8, !tbaa !56
  %7 = getelementptr inbounds nuw %struct.AVFilterLink, ptr %6, i32 0, i32 5
  %8 = load i32, ptr %7, align 4, !tbaa !58
  %9 = call ptr @av_pix_fmt_desc_get(i32 noundef %8)
  store ptr %9, ptr %3, align 8, !tbaa !65
  call void @llvm.lifetime.start.p0(i64 8, ptr %4) #14
  %10 = load ptr, ptr %2, align 8, !tbaa !56
  %11 = getelementptr inbounds nuw %struct.AVFilterLink, ptr %10, i32 0, i32 2
  %12 = load ptr, ptr %11, align 8, !tbaa !67
  store ptr %12, ptr %4, align 8, !tbaa !4
  call void @llvm.lifetime.start.p0(i64 8, ptr %5) #14
  %13 = load ptr, ptr %4, align 8, !tbaa !4
  %14 = getelementptr inbounds nuw %struct.AVFilterContext, ptr %13, i32 0, i32 9
  %15 = load ptr, ptr %14, align 8, !tbaa !9
  store ptr %15, ptr %5, align 8, !tbaa !22
  %16 = load ptr, ptr %2, align 8, !tbaa !56
  %17 = getelementptr inbounds nuw %struct.AVFilterLink, ptr %16, i32 0, i32 7
  %18 = load i32, ptr %17, align 4, !tbaa !68
  %19 = load ptr, ptr %5, align 8, !tbaa !22
  %20 = getelementptr inbounds nuw %struct.SSIM360Context, ptr %19, i32 0, i32 35
  %21 = getelementptr inbounds [4 x i32], ptr %20, i64 0, i64 0
  store i32 %18, ptr %21, align 8, !tbaa !38
  %22 = load ptr, ptr %2, align 8, !tbaa !56
  %23 = getelementptr inbounds nuw %struct.AVFilterLink, ptr %22, i32 0, i32 7
  %24 = load i32, ptr %23, align 4, !tbaa !68
  %25 = load ptr, ptr %5, align 8, !tbaa !22
  %26 = getelementptr inbounds nuw %struct.SSIM360Context, ptr %25, i32 0, i32 35
  %27 = getelementptr inbounds [4 x i32], ptr %26, i64 0, i64 3
  store i32 %24, ptr %27, align 4, !tbaa !38
  %28 = load ptr, ptr %3, align 8, !tbaa !65
  %29 = getelementptr inbounds nuw %struct.AVPixFmtDescriptor, ptr %28, i32 0, i32 3
  %30 = load i8, ptr %29, align 2, !tbaa !69
  %31 = call i1 @llvm.is.constant.i8(i8 %30)
  br i1 %31, label %43, label %32

32:                                               ; preds = %1
  %33 = load ptr, ptr %2, align 8, !tbaa !56
  %34 = getelementptr inbounds nuw %struct.AVFilterLink, ptr %33, i32 0, i32 7
  %35 = load i32, ptr %34, align 4, !tbaa !68
  %36 = sub nsw i32 0, %35
  %37 = load ptr, ptr %3, align 8, !tbaa !65
  %38 = getelementptr inbounds nuw %struct.AVPixFmtDescriptor, ptr %37, i32 0, i32 3
  %39 = load i8, ptr %38, align 2, !tbaa !69
  %40 = zext i8 %39 to i32
  %41 = ashr i32 %36, %40
  %42 = sub nsw i32 0, %41
  br label %59

43:                                               ; preds = %1
  %44 = load ptr, ptr %2, align 8, !tbaa !56
  %45 = getelementptr inbounds nuw %struct.AVFilterLink, ptr %44, i32 0, i32 7
  %46 = load i32, ptr %45, align 4, !tbaa !68
  %47 = load ptr, ptr %3, align 8, !tbaa !65
  %48 = getelementptr inbounds nuw %struct.AVPixFmtDescriptor, ptr %47, i32 0, i32 3
  %49 = load i8, ptr %48, align 2, !tbaa !69
  %50 = zext i8 %49 to i32
  %51 = shl i32 1, %50
  %52 = add nsw i32 %46, %51
  %53 = sub nsw i32 %52, 1
  %54 = load ptr, ptr %3, align 8, !tbaa !65
  %55 = getelementptr inbounds nuw %struct.AVPixFmtDescriptor, ptr %54, i32 0, i32 3
  %56 = load i8, ptr %55, align 2, !tbaa !69
  %57 = zext i8 %56 to i32
  %58 = ashr i32 %53, %57
  br label %59

59:                                               ; preds = %43, %32
  %60 = phi i32 [ %42, %32 ], [ %58, %43 ]
  %61 = load ptr, ptr %5, align 8, !tbaa !22
  %62 = getelementptr inbounds nuw %struct.SSIM360Context, ptr %61, i32 0, i32 35
  %63 = getelementptr inbounds [4 x i32], ptr %62, i64 0, i64 1
  store i32 %60, ptr %63, align 4, !tbaa !38
  %64 = load ptr, ptr %3, align 8, !tbaa !65
  %65 = getelementptr inbounds nuw %struct.AVPixFmtDescriptor, ptr %64, i32 0, i32 3
  %66 = load i8, ptr %65, align 2, !tbaa !69
  %67 = call i1 @llvm.is.constant.i8(i8 %66)
  br i1 %67, label %79, label %68

68:                                               ; preds = %59
  %69 = load ptr, ptr %2, align 8, !tbaa !56
  %70 = getelementptr inbounds nuw %struct.AVFilterLink, ptr %69, i32 0, i32 7
  %71 = load i32, ptr %70, align 4, !tbaa !68
  %72 = sub nsw i32 0, %71
  %73 = load ptr, ptr %3, align 8, !tbaa !65
  %74 = getelementptr inbounds nuw %struct.AVPixFmtDescriptor, ptr %73, i32 0, i32 3
  %75 = load i8, ptr %74, align 2, !tbaa !69
  %76 = zext i8 %75 to i32
  %77 = ashr i32 %72, %76
  %78 = sub nsw i32 0, %77
  br label %95

79:                                               ; preds = %59
  %80 = load ptr, ptr %2, align 8, !tbaa !56
  %81 = getelementptr inbounds nuw %struct.AVFilterLink, ptr %80, i32 0, i32 7
  %82 = load i32, ptr %81, align 4, !tbaa !68
  %83 = load ptr, ptr %3, align 8, !tbaa !65
  %84 = getelementptr inbounds nuw %struct.AVPixFmtDescriptor, ptr %83, i32 0, i32 3
  %85 = load i8, ptr %84, align 2, !tbaa !69
  %86 = zext i8 %85 to i32
  %87 = shl i32 1, %86
  %88 = add nsw i32 %82, %87
  %89 = sub nsw i32 %88, 1
  %90 = load ptr, ptr %3, align 8, !tbaa !65
  %91 = getelementptr inbounds nuw %struct.AVPixFmtDescriptor, ptr %90, i32 0, i32 3
  %92 = load i8, ptr %91, align 2, !tbaa !69
  %93 = zext i8 %92 to i32
  %94 = ashr i32 %89, %93
  br label %95

95:                                               ; preds = %79, %68
  %96 = phi i32 [ %78, %68 ], [ %94, %79 ]
  %97 = load ptr, ptr %5, align 8, !tbaa !22
  %98 = getelementptr inbounds nuw %struct.SSIM360Context, ptr %97, i32 0, i32 35
  %99 = getelementptr inbounds [4 x i32], ptr %98, i64 0, i64 2
  store i32 %96, ptr %99, align 8, !tbaa !38
  %100 = load ptr, ptr %2, align 8, !tbaa !56
  %101 = getelementptr inbounds nuw %struct.AVFilterLink, ptr %100, i32 0, i32 6
  %102 = load i32, ptr %101, align 8, !tbaa !71
  %103 = load ptr, ptr %5, align 8, !tbaa !22
  %104 = getelementptr inbounds nuw %struct.SSIM360Context, ptr %103, i32 0, i32 34
  %105 = getelementptr inbounds [4 x i32], ptr %104, i64 0, i64 0
  store i32 %102, ptr %105, align 8, !tbaa !38
  %106 = load ptr, ptr %2, align 8, !tbaa !56
  %107 = getelementptr inbounds nuw %struct.AVFilterLink, ptr %106, i32 0, i32 6
  %108 = load i32, ptr %107, align 8, !tbaa !71
  %109 = load ptr, ptr %5, align 8, !tbaa !22
  %110 = getelementptr inbounds nuw %struct.SSIM360Context, ptr %109, i32 0, i32 34
  %111 = getelementptr inbounds [4 x i32], ptr %110, i64 0, i64 3
  store i32 %108, ptr %111, align 4, !tbaa !38
  %112 = load ptr, ptr %3, align 8, !tbaa !65
  %113 = getelementptr inbounds nuw %struct.AVPixFmtDescriptor, ptr %112, i32 0, i32 2
  %114 = load i8, ptr %113, align 1, !tbaa !72
  %115 = call i1 @llvm.is.constant.i8(i8 %114)
  br i1 %115, label %127, label %116

116:                                              ; preds = %95
  %117 = load ptr, ptr %2, align 8, !tbaa !56
  %118 = getelementptr inbounds nuw %struct.AVFilterLink, ptr %117, i32 0, i32 6
  %119 = load i32, ptr %118, align 8, !tbaa !71
  %120 = sub nsw i32 0, %119
  %121 = load ptr, ptr %3, align 8, !tbaa !65
  %122 = getelementptr inbounds nuw %struct.AVPixFmtDescriptor, ptr %121, i32 0, i32 2
  %123 = load i8, ptr %122, align 1, !tbaa !72
  %124 = zext i8 %123 to i32
  %125 = ashr i32 %120, %124
  %126 = sub nsw i32 0, %125
  br label %143

127:                                              ; preds = %95
  %128 = load ptr, ptr %2, align 8, !tbaa !56
  %129 = getelementptr inbounds nuw %struct.AVFilterLink, ptr %128, i32 0, i32 6
  %130 = load i32, ptr %129, align 8, !tbaa !71
  %131 = load ptr, ptr %3, align 8, !tbaa !65
  %132 = getelementptr inbounds nuw %struct.AVPixFmtDescriptor, ptr %131, i32 0, i32 2
  %133 = load i8, ptr %132, align 1, !tbaa !72
  %134 = zext i8 %133 to i32
  %135 = shl i32 1, %134
  %136 = add nsw i32 %130, %135
  %137 = sub nsw i32 %136, 1
  %138 = load ptr, ptr %3, align 8, !tbaa !65
  %139 = getelementptr inbounds nuw %struct.AVPixFmtDescriptor, ptr %138, i32 0, i32 2
  %140 = load i8, ptr %139, align 1, !tbaa !72
  %141 = zext i8 %140 to i32
  %142 = ashr i32 %137, %141
  br label %143

143:                                              ; preds = %127, %116
  %144 = phi i32 [ %126, %116 ], [ %142, %127 ]
  %145 = load ptr, ptr %5, align 8, !tbaa !22
  %146 = getelementptr inbounds nuw %struct.SSIM360Context, ptr %145, i32 0, i32 34
  %147 = getelementptr inbounds [4 x i32], ptr %146, i64 0, i64 1
  store i32 %144, ptr %147, align 4, !tbaa !38
  %148 = load ptr, ptr %3, align 8, !tbaa !65
  %149 = getelementptr inbounds nuw %struct.AVPixFmtDescriptor, ptr %148, i32 0, i32 2
  %150 = load i8, ptr %149, align 1, !tbaa !72
  %151 = call i1 @llvm.is.constant.i8(i8 %150)
  br i1 %151, label %163, label %152

152:                                              ; preds = %143
  %153 = load ptr, ptr %2, align 8, !tbaa !56
  %154 = getelementptr inbounds nuw %struct.AVFilterLink, ptr %153, i32 0, i32 6
  %155 = load i32, ptr %154, align 8, !tbaa !71
  %156 = sub nsw i32 0, %155
  %157 = load ptr, ptr %3, align 8, !tbaa !65
  %158 = getelementptr inbounds nuw %struct.AVPixFmtDescriptor, ptr %157, i32 0, i32 2
  %159 = load i8, ptr %158, align 1, !tbaa !72
  %160 = zext i8 %159 to i32
  %161 = ashr i32 %156, %160
  %162 = sub nsw i32 0, %161
  br label %179

163:                                              ; preds = %143
  %164 = load ptr, ptr %2, align 8, !tbaa !56
  %165 = getelementptr inbounds nuw %struct.AVFilterLink, ptr %164, i32 0, i32 6
  %166 = load i32, ptr %165, align 8, !tbaa !71
  %167 = load ptr, ptr %3, align 8, !tbaa !65
  %168 = getelementptr inbounds nuw %struct.AVPixFmtDescriptor, ptr %167, i32 0, i32 2
  %169 = load i8, ptr %168, align 1, !tbaa !72
  %170 = zext i8 %169 to i32
  %171 = shl i32 1, %170
  %172 = add nsw i32 %166, %171
  %173 = sub nsw i32 %172, 1
  %174 = load ptr, ptr %3, align 8, !tbaa !65
  %175 = getelementptr inbounds nuw %struct.AVPixFmtDescriptor, ptr %174, i32 0, i32 2
  %176 = load i8, ptr %175, align 1, !tbaa !72
  %177 = zext i8 %176 to i32
  %178 = ashr i32 %173, %177
  br label %179

179:                                              ; preds = %163, %152
  %180 = phi i32 [ %162, %152 ], [ %178, %163 ]
  %181 = load ptr, ptr %5, align 8, !tbaa !22
  %182 = getelementptr inbounds nuw %struct.SSIM360Context, ptr %181, i32 0, i32 34
  %183 = getelementptr inbounds [4 x i32], ptr %182, i64 0, i64 2
  store i32 %180, ptr %183, align 8, !tbaa !38
  %184 = load ptr, ptr %5, align 8, !tbaa !22
  %185 = getelementptr inbounds nuw %struct.SSIM360Context, ptr %184, i32 0, i32 21
  %186 = load i32, ptr %185, align 4, !tbaa !73
  %187 = icmp eq i32 %186, 5
  br i1 %187, label %188, label %194

188:                                              ; preds = %179
  %189 = load ptr, ptr %5, align 8, !tbaa !22
  %190 = getelementptr inbounds nuw %struct.SSIM360Context, ptr %189, i32 0, i32 20
  %191 = load i32, ptr %190, align 8, !tbaa !74
  %192 = load ptr, ptr %5, align 8, !tbaa !22
  %193 = getelementptr inbounds nuw %struct.SSIM360Context, ptr %192, i32 0, i32 21
  store i32 %191, ptr %193, align 4, !tbaa !73
  br label %194

194:                                              ; preds = %188, %179
  %195 = load ptr, ptr %5, align 8, !tbaa !22
  %196 = getelementptr inbounds nuw %struct.SSIM360Context, ptr %195, i32 0, i32 23
  %197 = load i32, ptr %196, align 4, !tbaa !75
  %198 = icmp eq i32 %197, 3
  br i1 %198, label %199, label %205

199:                                              ; preds = %194
  %200 = load ptr, ptr %5, align 8, !tbaa !22
  %201 = getelementptr inbounds nuw %struct.SSIM360Context, ptr %200, i32 0, i32 22
  %202 = load i32, ptr %201, align 8, !tbaa !76
  %203 = load ptr, ptr %5, align 8, !tbaa !22
  %204 = getelementptr inbounds nuw %struct.SSIM360Context, ptr %203, i32 0, i32 23
  store i32 %202, ptr %204, align 4, !tbaa !75
  br label %205

205:                                              ; preds = %199, %194
  call void @llvm.lifetime.end.p0(i64 8, ptr %5) #14
  call void @llvm.lifetime.end.p0(i64 8, ptr %4) #14
  call void @llvm.lifetime.end.p0(i64 8, ptr %3) #14
  ret i32 0
}