; Function Attrs: nounwind uwtable
define internal noundef i32 @config_input_main(ptr noundef readonly captures(none) %0) #0 {
  %2 = getelementptr inbounds nuw i8, ptr %0, i64 36
  %3 = load i32, ptr %2, align 4, !tbaa !62
  %4 = tail call ptr @av_pix_fmt_desc_get(i32 noundef %3) #15
  %5 = getelementptr inbounds nuw i8, ptr %0, i64 16
  %6 = load ptr, ptr %5, align 8, !tbaa !69
  %7 = getelementptr inbounds nuw i8, ptr %6, i64 72
  %8 = load ptr, ptr %7, align 8, !tbaa !4
  %9 = getelementptr inbounds nuw i8, ptr %0, i64 44
  %10 = load i32, ptr %9, align 4, !tbaa !70
  %11 = getelementptr inbounds nuw i8, ptr %8, i64 8632
  store i32 %10, ptr %11, align 8, !tbaa !35
  %12 = getelementptr inbounds nuw i8, ptr %8, i64 8644
  store i32 %10, ptr %12, align 4, !tbaa !35
  %13 = getelementptr inbounds nuw i8, ptr %4, i64 10
  %14 = load i8, ptr %13, align 2, !tbaa !71
  %15 = load i32, ptr %9, align 4, !tbaa !70
  %16 = sub nsw i32 0, %15
  %17 = zext nneg i8 %14 to i32
  %18 = ashr i32 %16, %17
  %19 = sub nsw i32 0, %18
  %20 = getelementptr inbounds nuw i8, ptr %8, i64 8636
  store i32 %19, ptr %20, align 4, !tbaa !35
  %21 = load i32, ptr %9, align 4, !tbaa !70
  %22 = sub nsw i32 0, %21
  %23 = zext nneg i8 %14 to i32
  %24 = ashr i32 %22, %23
  %25 = sub nsw i32 0, %24
  %26 = getelementptr inbounds nuw i8, ptr %8, i64 8640
  store i32 %25, ptr %26, align 8, !tbaa !35
  %27 = getelementptr inbounds nuw i8, ptr %0, i64 40
  %28 = load i32, ptr %27, align 8, !tbaa !73
  %29 = getelementptr inbounds nuw i8, ptr %8, i64 8616
  store i32 %28, ptr %29, align 8, !tbaa !35
  %30 = getelementptr inbounds nuw i8, ptr %8, i64 8628
  store i32 %28, ptr %30, align 4, !tbaa !35
  %31 = getelementptr inbounds nuw i8, ptr %4, i64 9
  %32 = load i8, ptr %31, align 1, !tbaa !74
  %33 = load i32, ptr %27, align 8, !tbaa !73
  %34 = sub nsw i32 0, %33
  %35 = zext nneg i8 %32 to i32
  %36 = ashr i32 %34, %35
  %37 = sub nsw i32 0, %36
  %38 = getelementptr inbounds nuw i8, ptr %8, i64 8620
  store i32 %37, ptr %38, align 4, !tbaa !35
  %39 = load i32, ptr %27, align 8, !tbaa !73
  %40 = sub nsw i32 0, %39
  %41 = zext nneg i8 %32 to i32
  %42 = ashr i32 %40, %41
  %43 = sub nsw i32 0, %42
  %44 = getelementptr inbounds nuw i8, ptr %8, i64 8624
  store i32 %43, ptr %44, align 8, !tbaa !35
  %45 = getelementptr inbounds nuw i8, ptr %8, i64 8516
  %46 = load i32, ptr %45, align 4, !tbaa !75
  %47 = icmp eq i32 %46, 5
  br i1 %47, label %48, label %51

48:                                               ; preds = %1
  %49 = getelementptr inbounds nuw i8, ptr %8, i64 8512
  %50 = load i32, ptr %49, align 8, !tbaa !76
  store i32 %50, ptr %45, align 4, !tbaa !75
  br label %51

51:                                               ; preds = %48, %1
  %52 = getelementptr inbounds nuw i8, ptr %8, i64 8524
  %53 = load i32, ptr %52, align 4, !tbaa !77
  %54 = icmp eq i32 %53, 3
  br i1 %54, label %55, label %58

55:                                               ; preds = %51
  %56 = getelementptr inbounds nuw i8, ptr %8, i64 8520
  %57 = load i32, ptr %56, align 8, !tbaa !78
  store i32 %57, ptr %52, align 4, !tbaa !77
  br label %58

58:                                               ; preds = %55, %51
  ret i32 0
}